Certificate:
    Data:
        Version: 3 (0x2)
        Serial Number: 11844138341709101673 (0xa45ed511a027ba69)
    Signature Algorithm: sha1WithRSAEncryption
        Issuer: C=US, ST=VA, O=Textus, OU=etc/ssl, CN=localhost/emailAddress=test@localhost
        Validity
            Not Before: Feb 14 03:36:37 2014 GMT
            Not After : Oct 31 03:36:37 2103 GMT
        Subject: C=US, ST=VA, O=Textus, OU=etc/ssl, CN=localhost/emailAddress=test@localhost
        Subject Public Key Info:
            Public Key Algorithm: rsaEncryption
                Public-Key: (1024 bit)
                Modulus:
                    00:c9:98:9e:0d:20:73:68:ff:f8:03:45:8c:1b:9c:
                    b9:61:a0:c9:b7:61:d8:9c:15:c2:57:7e:d1:40:a5:
                    5f:04:1d:e7:20:4e:25:8d:e1:10:af:31:f1:ed:4d:
                    76:a8:de:39:1d:99:fa:58:de:71:88:81:d8:69:5f:
                    a2:77:93:1c:b2:6b:29:d1:51:3f:91:fd:23:ab:b7:
                    90:3b:d3:3b:52:ef:cc:38:9a:54:53:77:ea:a4:7c:
                    87:02:9e:21:99:f2:cd:a6:e5:4c:41:da:d7:f0:15:
                    3d:a6:36:33:0a:bb:3d:1d:f2:6d:25:d3:60:41:4d:
                    d4:49:dd:9a:c6:fd:77:c5:d3
                Exponent: 65537 (0x10001)
        X509v3 extensions:
            X509v3 Subject Key Identifier: 
                D1:48:E6:80:16:79:83:5C:03:5B:F8:0C:61:7E:1F:10:56:26:C5:7D
            X509v3 Authority Key Identifier: 
                keyid:D1:48:E6:80:16:79:83:5C:03:5B:F8:0C:61:7E:1F:10:56:26:C5:7D

            X509v3 Basic Constraints: 
                CA:TRUE
    Signature Algorithm: sha1WithRSAEncryption
         12:63:fd:81:3a:c0:d4:80:61:e1:96:98:d4:9d:94:09:c7:1a:
         d6:ee:50:3e:af:86:c2:b0:59:bd:7d:91:fa:4a:04:32:71:07:
         cb:3b:15:d1:e8:e4:12:33:15:b8:a6:d1:ac:a4:04:f7:7f:21:
         5e:25:a7:84:9b:7b:50:b5:c3:f0:f6:97:07:3f:e4:af:d3:44:
         fb:72:f4:b5:0b:4e:57:ea:24:df:b9:22:67:4f:ec:33:8c:41:
         0b:ec:de:c5:16:1d:e5:c7:2f:19:43:14:a6:c5:b7:53:e6:48:
         30:ce:56:6b:d9:fe:1a:2a:bd:d9:ea:5c:1e:ce:54:4e:4d:82:
         bd:ae
-----BEGIN CERTIFICATE-----
MIICsDCCAhmgAwIBAgIJAKRe1RGgJ7ppMA0GCSqGSIb3DQEBBQUAMHAxCzAJBgNV
BAYTAlVTMQswCQYDVQQIDAJWQTEPMA0GA1UECgwGVGV4dHVzMRAwDgYDVQQLDAdl
dGMvc3NsMRIwEAYDVQQDDAlsb2NhbGhvc3QxHTAbBgkqhkiG9w0BCQEWDnRlc3RA
bG9jYWxob3N0MCAXDTE0MDIxNDAzMzYzN1oYDzIxMDMxMDMxMDMzNjM3WjBwMQsw
CQYDVQQGEwJVUzELMAkGA1UECAwCVkExDzANBgNVBAoMBlRleHR1czEQMA4GA1UE
CwwHZXRjL3NzbDESMBAGA1UEAwwJbG9jYWxob3N0MR0wGwYJKoZIhvcNAQkBFg50
ZXN0QGxvY2FsaG9zdDCBnzANBgkqhkiG9w0BAQEFAAOBjQAwgYkCgYEAyZieDSBz
aP/4A0WMG5y5YaDJt2HYnBXCV37RQKVfBB3nIE4ljeEQrzHx7U12qN45HZn6WN5x
iIHYaV+id5Mcsmsp0VE/kf0jq7eQO9M7Uu/MOJpUU3fqpHyHAp4hmfLNpuVMQdrX
8BU9pjYzCrs9HfJtJdNgQU3USd2axv13xdMCAwEAAaNQME4wHQYDVR0OBBYEFNFI
5oAWeYNcA1v4DGF+HxBWJsV9MB8GA1UdIwQYMBaAFNFI5oAWeYNcA1v4DGF+HxBW
JsV9MAwGA1UdEwQFMAMBAf8wDQYJKoZIhvcNAQEFBQADgYEAEmP9gTrA1IBh4ZaY
1J2UCcca1u5QPq+GwrBZvX2R+koEMnEHyzsV0ejkEjMVuKbRrKQE938hXiWnhJt7
ULXD8PaXBz/kr9NE+3L0tQtOV+ok37kiZ0/sM4xBC+zexRYd5ccvGUMUpsW3U+ZI
MM5Wa9n+Giq92epcHs5UTk2Cva4=
-----END CERTIFICATE-----
