Certificate:
    Data:
        Version: 3 (0x2)
        Serial Number: 11844138341709101674 (0xa45ed511a027ba6a)
    Signature Algorithm: sha1WithRSAEncryption
        Issuer: C=US, ST=VA, O=Textus, OU=etc/ssl, CN=localhost/emailAddress=test@localhost
        Validity
            Not Before: Feb 14 03:36:37 2014 GMT
            Not After : Feb 14 03:36:37 2015 GMT
        Subject: C=US, ST=VA, L=Ashburn, O=Textus, OU=etc/ssl, CN=localhost/emailAddress=test@localhost
        Subject Public Key Info:
            Public Key Algorithm: rsaEncryption
                Public-Key: (1024 bit)
                Modulus:
                    00:cb:3e:1b:70:85:21:e1:e6:19:b9:ee:67:c7:a1:
                    af:bd:2f:5a:c4:76:2c:3c:e5:a0:c9:9a:db:87:a9:
                    bc:5f:75:41:f4:3f:dc:11:ae:57:cc:35:49:3a:47:
                    29:8c:45:01:71:b9:f3:eb:9c:75:df:1c:36:a1:8e:
                    b6:4d:35:75:04:bc:22:d9:c1:54:20:13:8e:36:a8:
                    cf:20:be:4c:d7:5d:26:8b:71:00:0c:68:e7:f6:92:
                    fd:23:71:79:d7:e9:c6:ce:b1:7f:cb:02:4e:45:f7:
                    57:b4:b8:32:82:56:d3:fd:42:78:3c:fb:2f:df:0c:
                    28:44:fc:5f:70:55:20:c3:79
                Exponent: 65537 (0x10001)
        X509v3 extensions:
            X509v3 Basic Constraints: 
                CA:FALSE
            Netscape Comment: 
                OpenSSL Generated Certificate
            X509v3 Subject Key Identifier: 
                EE:F5:CD:97:D2:18:A1:41:27:01:7B:24:5C:9C:B5:1B:83:0E:89:62
            X509v3 Authority Key Identifier: 
                keyid:D1:48:E6:80:16:79:83:5C:03:5B:F8:0C:61:7E:1F:10:56:26:C5:7D

    Signature Algorithm: sha1WithRSAEncryption
         bc:fd:e3:d4:fe:ac:00:8b:57:33:2d:32:77:8a:3c:fc:a6:0f:
         a4:1b:b7:86:7f:ce:88:6b:0a:c5:66:4d:b2:03:91:d8:5e:6f:
         9d:b6:d4:e1:88:9f:80:1f:14:ae:45:51:22:09:d4:1e:f6:62:
         20:09:a4:72:47:c2:19:96:fc:92:2a:94:b1:04:d5:17:9d:9c:
         ab:48:33:a1:e5:0e:bd:70:46:e1:0f:de:0e:63:c0:4b:59:4e:
         17:4f:64:9a:0e:c6:95:c3:91:65:0f:5d:22:86:b4:9f:5f:71:
         fc:e4:c8:02:fb:37:e1:a3:ad:57:33:41:62:c2:13:36:d4:72:
         63:35
-----BEGIN CERTIFICATE-----
MIIC7DCCAlWgAwIBAgIJAKRe1RGgJ7pqMA0GCSqGSIb3DQEBBQUAMHAxCzAJBgNV
BAYTAlVTMQswCQYDVQQIDAJWQTEPMA0GA1UECgwGVGV4dHVzMRAwDgYDVQQLDAdl
dGMvc3NsMRIwEAYDVQQDDAlsb2NhbGhvc3QxHTAbBgkqhkiG9w0BCQEWDnRlc3RA
bG9jYWxob3N0MB4XDTE0MDIxNDAzMzYzN1oXDTE1MDIxNDAzMzYzN1owgYIxCzAJ
BgNVBAYTAlVTMQswCQYDVQQIDAJWQTEQMA4GA1UEBwwHQXNoYnVybjEPMA0GA1UE
CgwGVGV4dHVzMRAwDgYDVQQLDAdldGMvc3NsMRIwEAYDVQQDDAlsb2NhbGhvc3Qx
HTAbBgkqhkiG9w0BCQEWDnRlc3RAbG9jYWxob3N0MIGfMA0GCSqGSIb3DQEBAQUA
A4GNADCBiQKBgQDLPhtwhSHh5hm57mfHoa+9L1rEdiw85aDJmtuHqbxfdUH0P9wR
rlfMNUk6RymMRQFxufPrnHXfHDahjrZNNXUEvCLZwVQgE442qM8gvkzXXSaLcQAM
aOf2kv0jcXnX6cbOsX/LAk5F91e0uDKCVtP9Qng8+y/fDChE/F9wVSDDeQIDAQAB
o3sweTAJBgNVHRMEAjAAMCwGCWCGSAGG+EIBDQQfFh1PcGVuU1NMIEdlbmVyYXRl
ZCBDZXJ0aWZpY2F0ZTAdBgNVHQ4EFgQU7vXNl9IYoUEnAXskXJy1G4MOiWIwHwYD
VR0jBBgwFoAU0UjmgBZ5g1wDW/gMYX4fEFYmxX0wDQYJKoZIhvcNAQEFBQADgYEA
vP3j1P6sAItXMy0yd4o8/KYPpBu3hn/OiGsKxWZNsgOR2F5vnbbU4YifgB8UrkVR
IgnUHvZiIAmkckfCGZb8kiqUsQTVF52cq0gzoeUOvXBG4Q/eDmPAS1lOF09kmg7G
lcORZQ9dIoa0n19x/OTIAvs34aOtVzNBYsITNtRyYzU=
-----END CERTIFICATE-----
