Certificate:
    Data:
        Version: 3 (0x2)
        Serial Number: 14603759805270074020 (0xcaaafa2b3a4022a4)
    Signature Algorithm: sha1WithRSAEncryption
        Issuer: C=US, ST=VA, O=Textus, OU=etc/ssl, CN=localhost/emailAddress=test@localhost
        Validity
            Not Before: Feb 11 02:50:46 2013 GMT
            Not After : Feb 11 02:50:46 2014 GMT
        Subject: C=US, ST=VA, L=Ashburn, O=Textus, OU=etc/ssl, CN=localhost/emailAddress=test@localhost
        Subject Public Key Info:
            Public Key Algorithm: rsaEncryption
                Public-Key: (1024 bit)
                Modulus:
                    00:cf:d3:15:31:78:f8:1a:0f:f5:42:52:be:57:48:
                    a0:f3:d4:a2:c7:79:fd:13:e8:f1:d9:3d:d1:3c:ef:
                    9d:6a:36:a8:02:c7:68:9c:9f:39:2b:70:34:fc:c9:
                    26:23:c1:4a:fe:09:6d:fa:dc:c3:b6:1d:05:ae:39:
                    66:2b:29:74:61:7a:c6:d4:e1:06:35:49:98:0a:68:
                    b9:33:9f:ae:79:89:32:8a:40:0b:5c:ca:66:cb:2c:
                    b0:73:63:ba:e5:9a:3d:19:fb:b7:e9:1f:fe:dd:38:
                    16:57:b1:2b:7a:75:48:f9:fe:33:64:4a:5c:75:ff:
                    dd:bf:19:66:50:b7:57:87:f3
                Exponent: 65537 (0x10001)
        X509v3 extensions:
            X509v3 Basic Constraints: 
                CA:FALSE
            Netscape Comment: 
                OpenSSL Generated Certificate
            X509v3 Subject Key Identifier: 
                B0:25:44:4F:AC:04:61:2A:94:33:FB:8A:2F:AA:D4:11:84:76:8F:55
            X509v3 Authority Key Identifier: 
                keyid:06:17:C0:74:95:51:F2:55:4A:61:14:FF:D7:5E:B8:78:63:0A:4C:08

    Signature Algorithm: sha1WithRSAEncryption
         cc:b4:85:d2:98:fb:46:c7:b5:52:09:d8:db:cf:59:5f:f2:68:
         d1:9e:a5:b8:37:7f:08:80:e3:32:01:8e:42:2d:ea:13:ba:5d:
         ce:4e:af:ed:95:19:08:77:36:e3:15:fe:4e:0d:43:2d:3a:37:
         15:34:d9:86:84:f7:9c:d3:2b:57:5a:cd:d1:2f:5e:4b:8c:0c:
         76:b3:70:fc:31:1a:3a:3a:fc:6b:98:d0:3a:2d:92:c2:b2:db:
         be:56:ff:9a:be:ba:ec:a7:8c:fe:a9:ff:39:23:91:53:ed:62:
         0c:ae:c7:6c:6b:fa:78:00:80:4e:d8:dc:ce:a1:81:14:ff:b2:
         1c:14
-----BEGIN CERTIFICATE-----
MIIC7DCCAlWgAwIBAgIJAMqq+is6QCKkMA0GCSqGSIb3DQEBBQUAMHAxCzAJBgNV
BAYTAlVTMQswCQYDVQQIDAJWQTEPMA0GA1UECgwGVGV4dHVzMRAwDgYDVQQLDAdl
dGMvc3NsMRIwEAYDVQQDDAlsb2NhbGhvc3QxHTAbBgkqhkiG9w0BCQEWDnRlc3RA
bG9jYWxob3N0MB4XDTEzMDIxMTAyNTA0NloXDTE0MDIxMTAyNTA0NlowgYIxCzAJ
BgNVBAYTAlVTMQswCQYDVQQIDAJWQTEQMA4GA1UEBwwHQXNoYnVybjEPMA0GA1UE
CgwGVGV4dHVzMRAwDgYDVQQLDAdldGMvc3NsMRIwEAYDVQQDDAlsb2NhbGhvc3Qx
HTAbBgkqhkiG9w0BCQEWDnRlc3RAbG9jYWxob3N0MIGfMA0GCSqGSIb3DQEBAQUA
A4GNADCBiQKBgQDP0xUxePgaD/VCUr5XSKDz1KLHef0T6PHZPdE8751qNqgCx2ic
nzkrcDT8ySYjwUr+CW363MO2HQWuOWYrKXRhesbU4QY1SZgKaLkzn655iTKKQAtc
ymbLLLBzY7rlmj0Z+7fpH/7dOBZXsSt6dUj5/jNkSlx1/92/GWZQt1eH8wIDAQAB
o3sweTAJBgNVHRMEAjAAMCwGCWCGSAGG+EIBDQQfFh1PcGVuU1NMIEdlbmVyYXRl
ZCBDZXJ0aWZpY2F0ZTAdBgNVHQ4EFgQUsCVET6wEYSqUM/uKL6rUEYR2j1UwHwYD
VR0jBBgwFoAUBhfAdJVR8lVKYRT/1164eGMKTAgwDQYJKoZIhvcNAQEFBQADgYEA
zLSF0pj7Rse1UgnY289ZX/Jo0Z6luDd/CIDjMgGOQi3qE7pdzk6v7ZUZCHc24xX+
Tg1DLTo3FTTZhoT3nNMrV1rN0S9eS4wMdrNw/DEaOjr8a5jQOi2SwrLbvlb/mr66
7KeM/qn/OSORU+1iDK7HbGv6eACATtjczqGBFP+yHBQ=
-----END CERTIFICATE-----
