Certificate:
    Data:
        Version: 3 (0x2)
        Serial Number: 12829517357146575955 (0xb20b9a10086e1453)
    Signature Algorithm: sha1WithRSAEncryption
        Issuer: C=US, ST=VA, O=Textus, OU=etc/ssl, CN=localhost/emailAddress=test@localhost
        Validity
            Not Before: Feb 11 02:51:04 2013 GMT
            Not After : Feb 12 02:51:04 2014 GMT
        Subject: C=US, ST=VA, O=Textus, OU=etc/ssl, CN=localhost/emailAddress=test@localhost
        Subject Public Key Info:
            Public Key Algorithm: rsaEncryption
                Public-Key: (1024 bit)
                Modulus:
                    00:f0:37:86:fc:14:91:31:46:80:7a:5d:fc:1b:de:
                    a2:68:0f:b3:b5:2c:56:02:ae:17:0b:df:38:d7:e3:
                    80:9c:64:1a:81:d3:c4:20:d0:74:e4:1a:b8:cc:59:
                    db:de:ab:33:a4:02:d6:60:07:68:57:a8:2f:e3:9c:
                    a5:c1:33:e8:3c:58:cc:ae:69:a6:2d:cd:77:3d:74:
                    a6:2d:bc:bb:a5:f8:a8:c0:e8:be:52:3b:83:f2:90:
                    e3:b7:6f:8c:95:43:95:8e:1a:82:a1:e5:8a:17:22:
                    90:56:51:3a:d6:6d:0a:d1:16:fc:95:a6:6c:2f:64:
                    69:a1:33:ae:6d:3d:8e:c7:17
                Exponent: 65537 (0x10001)
        X509v3 extensions:
            X509v3 Subject Key Identifier: 
                15:BE:33:E7:83:CF:61:D3:8C:63:83:2B:A2:BE:C5:A0:1F:2B:31:90
            X509v3 Authority Key Identifier: 
                keyid:15:BE:33:E7:83:CF:61:D3:8C:63:83:2B:A2:BE:C5:A0:1F:2B:31:90

            X509v3 Basic Constraints: 
                CA:TRUE
    Signature Algorithm: sha1WithRSAEncryption
         af:b4:a5:cf:eb:a8:e6:da:ca:da:6a:33:c2:32:95:84:32:cb:
         8a:32:d7:d6:e6:e7:5b:cf:ec:da:eb:c5:07:dd:62:82:86:72:
         1e:7f:6e:df:b4:07:e0:40:60:54:1f:8b:01:cd:0d:3f:cf:7b:
         77:c2:61:cf:21:5b:51:0d:e4:fb:c0:f3:48:2c:72:93:14:3d:
         63:ba:4f:f3:07:4a:1c:f9:53:18:1c:49:88:12:37:ef:b6:d3:
         f9:f0:0d:0b:80:12:42:fa:d6:18:56:c8:8b:09:9d:84:f7:9d:
         35:a5:13:90:cb:18:98:6f:b1:0e:c2:8a:fe:f5:b9:39:bf:ba:
         b6:fc
-----BEGIN CERTIFICATE-----
MIICrjCCAhegAwIBAgIJALILmhAIbhRTMA0GCSqGSIb3DQEBBQUAMHAxCzAJBgNV
BAYTAlVTMQswCQYDVQQIDAJWQTEPMA0GA1UECgwGVGV4dHVzMRAwDgYDVQQLDAdl
dGMvc3NsMRIwEAYDVQQDDAlsb2NhbGhvc3QxHTAbBgkqhkiG9w0BCQEWDnRlc3RA
bG9jYWxob3N0MB4XDTEzMDIxMTAyNTEwNFoXDTE0MDIxMjAyNTEwNFowcDELMAkG
A1UEBhMCVVMxCzAJBgNVBAgMAlZBMQ8wDQYDVQQKDAZUZXh0dXMxEDAOBgNVBAsM
B2V0Yy9zc2wxEjAQBgNVBAMMCWxvY2FsaG9zdDEdMBsGCSqGSIb3DQEJARYOdGVz
dEBsb2NhbGhvc3QwgZ8wDQYJKoZIhvcNAQEBBQADgY0AMIGJAoGBAPA3hvwUkTFG
gHpd/BveomgPs7UsVgKuFwvfONfjgJxkGoHTxCDQdOQauMxZ296rM6QC1mAHaFeo
L+OcpcEz6DxYzK5ppi3Ndz10pi28u6X4qMDovlI7g/KQ47dvjJVDlY4agqHlihci
kFZROtZtCtEW/JWmbC9kaaEzrm09jscXAgMBAAGjUDBOMB0GA1UdDgQWBBQVvjPn
g89h04xjgyuivsWgHysxkDAfBgNVHSMEGDAWgBQVvjPng89h04xjgyuivsWgHysx
kDAMBgNVHRMEBTADAQH/MA0GCSqGSIb3DQEBBQUAA4GBAK+0pc/rqObaytpqM8Iy
lYQyy4oy19bm51vP7NrrxQfdYoKGch5/bt+0B+BAYFQfiwHNDT/Pe3fCYc8hW1EN
5PvA80gscpMUPWO6T/MHShz5UxgcSYgSN++20/nwDQuAEkL61hhWyIsJnYT3nTWl
E5DLGJhvsQ7Civ71uTm/urb8
-----END CERTIFICATE-----
