Certificate:
    Data:
        Version: 3 (0x2)
        Serial Number: 14999900368702623216 (0xd02a59e996c54df0)
    Signature Algorithm: sha1WithRSAEncryption
        Issuer: C=US, ST=VA, O=Textus, OU=etc/ssl, CN=localhost/emailAddress=test@localhost
        Validity
            Not Before: Feb 14 03:47:00 2014 GMT
            Not After : Oct 31 03:47:00 2103 GMT
        Subject: C=US, ST=VA, O=Textus, OU=etc/ssl, CN=localhost/emailAddress=test@localhost
        Subject Public Key Info:
            Public Key Algorithm: rsaEncryption
                Public-Key: (1024 bit)
                Modulus:
                    00:b0:eb:6d:bf:a3:35:9f:25:7c:31:7e:12:9f:8b:
                    ad:e6:65:48:b2:be:95:28:86:c1:cf:d5:f8:9c:c8:
                    fa:52:96:31:fa:7f:96:50:de:5b:0d:72:21:7c:00:
                    71:3e:5f:f8:b0:0c:ac:ee:c9:6b:f4:9d:17:b7:9b:
                    e2:79:9d:74:4c:70:0b:40:0f:29:9c:15:44:f2:5a:
                    50:3b:1c:8a:87:e8:68:b0:07:66:c7:4a:8d:84:a4:
                    fb:5f:e6:d0:6c:5a:d2:31:c4:b3:41:01:a3:26:fa:
                    2e:a3:19:e8:1f:ac:14:8b:e5:ed:78:4b:3e:ee:64:
                    2f:4f:16:3a:5e:b7:bf:18:b7
                Exponent: 65537 (0x10001)
        X509v3 extensions:
            X509v3 Subject Key Identifier: 
                64:22:CC:13:13:25:41:A8:48:8F:C6:C8:61:3E:18:1A:1F:24:11:A1
            X509v3 Authority Key Identifier: 
                keyid:64:22:CC:13:13:25:41:A8:48:8F:C6:C8:61:3E:18:1A:1F:24:11:A1

            X509v3 Basic Constraints: 
                CA:TRUE
    Signature Algorithm: sha1WithRSAEncryption
         27:da:a6:46:0d:61:73:d0:44:ea:89:56:05:7f:27:26:f2:c5:
         87:23:b6:0f:00:af:fc:b4:e8:e1:b5:aa:f9:22:1f:6b:2f:16:
         ed:56:ff:78:35:9d:64:e2:7b:60:a2:f5:59:a5:5a:f2:c1:2e:
         ba:4c:63:35:c4:df:57:df:60:31:17:90:dc:11:08:a0:e7:78:
         28:bd:c7:db:f3:2c:cc:02:83:85:26:91:21:5c:e4:ba:b8:42:
         e0:78:4c:a3:84:0e:d2:ac:c7:96:14:34:f1:f7:00:a6:00:73:
         5d:3d:a6:f4:cd:3b:ef:94:a7:b2:c5:b2:aa:7d:b7:6d:03:4a:
         ae:8d
-----BEGIN CERTIFICATE-----
MIICsDCCAhmgAwIBAgIJANAqWemWxU3wMA0GCSqGSIb3DQEBBQUAMHAxCzAJBgNV
BAYTAlVTMQswCQYDVQQIDAJWQTEPMA0GA1UECgwGVGV4dHVzMRAwDgYDVQQLDAdl
dGMvc3NsMRIwEAYDVQQDDAlsb2NhbGhvc3QxHTAbBgkqhkiG9w0BCQEWDnRlc3RA
bG9jYWxob3N0MCAXDTE0MDIxNDAzNDcwMFoYDzIxMDMxMDMxMDM0NzAwWjBwMQsw
CQYDVQQGEwJVUzELMAkGA1UECAwCVkExDzANBgNVBAoMBlRleHR1czEQMA4GA1UE
CwwHZXRjL3NzbDESMBAGA1UEAwwJbG9jYWxob3N0MR0wGwYJKoZIhvcNAQkBFg50
ZXN0QGxvY2FsaG9zdDCBnzANBgkqhkiG9w0BAQEFAAOBjQAwgYkCgYEAsOttv6M1
nyV8MX4Sn4ut5mVIsr6VKIbBz9X4nMj6UpYx+n+WUN5bDXIhfABxPl/4sAys7slr
9J0Xt5vieZ10THALQA8pnBVE8lpQOxyKh+hosAdmx0qNhKT7X+bQbFrSMcSzQQGj
JvouoxnoH6wUi+XteEs+7mQvTxY6Xre/GLcCAwEAAaNQME4wHQYDVR0OBBYEFGQi
zBMTJUGoSI/GyGE+GBofJBGhMB8GA1UdIwQYMBaAFGQizBMTJUGoSI/GyGE+GBof
JBGhMAwGA1UdEwQFMAMBAf8wDQYJKoZIhvcNAQEFBQADgYEAJ9qmRg1hc9BE6olW
BX8nJvLFhyO2DwCv/LTo4bWq+SIfay8W7Vb/eDWdZOJ7YKL1WaVa8sEuukxjNcTf
V99gMReQ3BEIoOd4KL3H2/MszAKDhSaRIVzkurhC4HhMo4QO0qzHlhQ08fcApgBz
XT2m9M0775SnssWyqn23bQNKro0=
-----END CERTIFICATE-----
