Certificate:
    Data:
        Version: 3 (0x2)
        Serial Number: 14999900368702623217 (0xd02a59e996c54df1)
    Signature Algorithm: sha1WithRSAEncryption
        Issuer: C=US, ST=VA, O=Textus, OU=etc/ssl, CN=localhost/emailAddress=test@localhost
        Validity
            Not Before: Feb 14 03:47:01 2014 GMT
            Not After : Feb 14 03:47:01 2015 GMT
        Subject: C=US, ST=VA, L=Ashburn, O=Textus, OU=etc/ssl, CN=localhost/emailAddress=test@localhost
        Subject Public Key Info:
            Public Key Algorithm: rsaEncryption
                Public-Key: (1024 bit)
                Modulus:
                    00:af:e6:9c:32:f9:bb:e3:1e:e5:ba:63:e4:b6:96:
                    ea:fb:c2:f1:d6:bf:ec:6e:63:fb:11:3a:c8:d0:ff:
                    6e:74:1c:c7:6f:a4:4f:bb:40:94:b6:1d:24:d5:28:
                    d3:8e:d2:df:43:e0:19:33:5f:db:15:e5:43:60:4f:
                    78:4e:16:b5:5d:44:fb:c9:62:59:f9:a0:1a:e8:3a:
                    c7:b1:b1:da:8a:59:45:97:f7:3a:af:4b:a4:ef:5d:
                    fb:ea:6b:23:0e:0c:7d:be:05:b7:f9:ef:65:08:c8:
                    90:7d:bf:ad:18:a0:5c:5a:8a:ce:4e:43:2b:65:32:
                    82:36:71:1f:e3:46:27:d3:b3
                Exponent: 65537 (0x10001)
        X509v3 extensions:
            X509v3 Basic Constraints: 
                CA:FALSE
            Netscape Comment: 
                OpenSSL Generated Certificate
            X509v3 Subject Key Identifier: 
                2F:00:69:F5:12:E8:98:8F:A3:DD:23:3F:1A:F7:17:6A:02:6A:B1:B9
            X509v3 Authority Key Identifier: 
                keyid:64:22:CC:13:13:25:41:A8:48:8F:C6:C8:61:3E:18:1A:1F:24:11:A1

    Signature Algorithm: sha1WithRSAEncryption
         0c:3c:24:1d:5d:d0:1d:a3:56:c3:46:64:50:4e:07:fd:2e:ad:
         94:71:84:5c:92:1b:6d:0b:20:9f:fe:cb:23:a4:07:e2:e2:18:
         6c:da:fd:03:e8:fb:2c:6f:e3:aa:b1:9a:e7:43:e9:4e:24:a5:
         1d:10:5b:ad:c9:1b:ab:03:ea:3f:9b:a0:fc:4b:07:84:41:b0:
         9a:85:fb:08:ed:bb:28:27:4c:0d:1b:96:a5:83:03:12:6a:9b:
         11:a8:24:e4:3b:53:d6:3a:68:87:6e:03:04:04:51:08:6f:99:
         d3:15:47:f4:2b:3e:b6:a9:b2:19:ba:3b:2b:d3:13:19:21:15:
         1a:64
-----BEGIN CERTIFICATE-----
MIIC7DCCAlWgAwIBAgIJANAqWemWxU3xMA0GCSqGSIb3DQEBBQUAMHAxCzAJBgNV
BAYTAlVTMQswCQYDVQQIDAJWQTEPMA0GA1UECgwGVGV4dHVzMRAwDgYDVQQLDAdl
dGMvc3NsMRIwEAYDVQQDDAlsb2NhbGhvc3QxHTAbBgkqhkiG9w0BCQEWDnRlc3RA
bG9jYWxob3N0MB4XDTE0MDIxNDAzNDcwMVoXDTE1MDIxNDAzNDcwMVowgYIxCzAJ
BgNVBAYTAlVTMQswCQYDVQQIDAJWQTEQMA4GA1UEBwwHQXNoYnVybjEPMA0GA1UE
CgwGVGV4dHVzMRAwDgYDVQQLDAdldGMvc3NsMRIwEAYDVQQDDAlsb2NhbGhvc3Qx
HTAbBgkqhkiG9w0BCQEWDnRlc3RAbG9jYWxob3N0MIGfMA0GCSqGSIb3DQEBAQUA
A4GNADCBiQKBgQCv5pwy+bvjHuW6Y+S2lur7wvHWv+xuY/sROsjQ/250HMdvpE+7
QJS2HSTVKNOO0t9D4BkzX9sV5UNgT3hOFrVdRPvJYln5oBroOsexsdqKWUWX9zqv
S6TvXfvqayMODH2+Bbf572UIyJB9v60YoFxais5OQytlMoI2cR/jRifTswIDAQAB
o3sweTAJBgNVHRMEAjAAMCwGCWCGSAGG+EIBDQQfFh1PcGVuU1NMIEdlbmVyYXRl
ZCBDZXJ0aWZpY2F0ZTAdBgNVHQ4EFgQULwBp9RLomI+j3SM/GvcXagJqsbkwHwYD
VR0jBBgwFoAUZCLMExMlQahIj8bIYT4YGh8kEaEwDQYJKoZIhvcNAQEFBQADgYEA
DDwkHV3QHaNWw0ZkUE4H/S6tlHGEXJIbbQsgn/7LI6QH4uIYbNr9A+j7LG/jqrGa
50PpTiSlHRBbrckbqwPqP5ug/EsHhEGwmoX7CO27KCdMDRuWpYMDEmqbEagk5DtT
1jpoh24DBARRCG+Z0xVH9Cs+tqmyGbo7K9MTGSEVGmQ=
-----END CERTIFICATE-----
