Certificate:
    Data:
        Version: 3 (0x2)
        Serial Number: 12829517357146575956 (0xb20b9a10086e1454)
    Signature Algorithm: sha1WithRSAEncryption
        Issuer: C=US, ST=VA, O=Textus, OU=etc/ssl, CN=localhost/emailAddress=test@localhost
        Validity
            Not Before: Feb 11 02:51:09 2013 GMT
            Not After : Feb 11 02:51:09 2014 GMT
        Subject: C=US, ST=VA, L=Ashburn, O=Textus, OU=etc/ssl, CN=localhost/emailAddress=test@localhost
        Subject Public Key Info:
            Public Key Algorithm: rsaEncryption
                Public-Key: (1024 bit)
                Modulus:
                    00:a4:bf:cd:4d:b1:c4:ce:61:a6:03:9f:45:c2:d2:
                    66:29:92:ca:dd:ec:2d:08:3f:64:d8:2b:78:97:f2:
                    7a:0f:76:55:05:46:fe:e8:0d:a6:8d:54:63:dd:71:
                    66:cc:cc:f9:dc:da:2a:9a:08:c6:c2:b8:b9:ba:ec:
                    7a:f2:f9:a5:29:5f:fb:bf:01:b0:d6:bc:54:c3:21:
                    01:df:db:25:86:38:71:81:2c:c3:05:0a:91:fb:e2:
                    33:89:25:11:1c:13:1d:ff:7d:66:31:29:db:bc:a5:
                    7c:e5:b7:3e:7b:19:24:56:13:5b:ea:ef:88:0d:e8:
                    0b:87:34:f9:f0:c7:0c:cf:19
                Exponent: 65537 (0x10001)
        X509v3 extensions:
            X509v3 Basic Constraints: 
                CA:FALSE
            Netscape Comment: 
                OpenSSL Generated Certificate
            X509v3 Subject Key Identifier: 
                89:D5:3C:BA:A5:A3:78:1B:81:A2:8D:80:9E:F3:FC:B2:A0:BA:70:6A
            X509v3 Authority Key Identifier: 
                keyid:15:BE:33:E7:83:CF:61:D3:8C:63:83:2B:A2:BE:C5:A0:1F:2B:31:90

    Signature Algorithm: sha1WithRSAEncryption
         96:bf:06:af:75:ba:e8:04:8e:52:95:ff:6f:c5:2d:a2:46:32:
         e7:8b:6e:70:0a:e0:40:5e:fc:ad:8c:83:87:8e:67:26:0d:57:
         f4:6e:78:09:00:8c:7e:cb:e0:62:0a:4a:8d:c1:a2:d2:c1:3a:
         f5:35:83:1e:b8:6a:40:52:15:8b:80:64:56:57:5b:12:c4:c3:
         97:5a:58:d5:c7:6d:00:6f:44:89:cf:af:e7:f5:a2:d5:2e:cc:
         21:e4:a1:d1:9e:79:f3:6d:a4:50:3e:d2:8f:e4:16:28:17:58:
         5e:b0:c2:44:76:d5:0a:6e:38:7d:32:d8:3f:c9:13:b4:26:f3:
         5c:e6
-----BEGIN CERTIFICATE-----
MIIC7DCCAlWgAwIBAgIJALILmhAIbhRUMA0GCSqGSIb3DQEBBQUAMHAxCzAJBgNV
BAYTAlVTMQswCQYDVQQIDAJWQTEPMA0GA1UECgwGVGV4dHVzMRAwDgYDVQQLDAdl
dGMvc3NsMRIwEAYDVQQDDAlsb2NhbGhvc3QxHTAbBgkqhkiG9w0BCQEWDnRlc3RA
bG9jYWxob3N0MB4XDTEzMDIxMTAyNTEwOVoXDTE0MDIxMTAyNTEwOVowgYIxCzAJ
BgNVBAYTAlVTMQswCQYDVQQIDAJWQTEQMA4GA1UEBwwHQXNoYnVybjEPMA0GA1UE
CgwGVGV4dHVzMRAwDgYDVQQLDAdldGMvc3NsMRIwEAYDVQQDDAlsb2NhbGhvc3Qx
HTAbBgkqhkiG9w0BCQEWDnRlc3RAbG9jYWxob3N0MIGfMA0GCSqGSIb3DQEBAQUA
A4GNADCBiQKBgQCkv81NscTOYaYDn0XC0mYpksrd7C0IP2TYK3iX8noPdlUFRv7o
DaaNVGPdcWbMzPnc2iqaCMbCuLm67Hry+aUpX/u/AbDWvFTDIQHf2yWGOHGBLMMF
CpH74jOJJREcEx3/fWYxKdu8pXzltz57GSRWE1vq74gN6AuHNPnwxwzPGQIDAQAB
o3sweTAJBgNVHRMEAjAAMCwGCWCGSAGG+EIBDQQfFh1PcGVuU1NMIEdlbmVyYXRl
ZCBDZXJ0aWZpY2F0ZTAdBgNVHQ4EFgQUidU8uqWjeBuBoo2AnvP8sqC6cGowHwYD
VR0jBBgwFoAUFb4z54PPYdOMY4Mror7FoB8rMZAwDQYJKoZIhvcNAQEFBQADgYEA
lr8Gr3W66ASOUpX/b8UtokYy54tucArgQF78rYyDh45nJg1X9G54CQCMfsvgYgpK
jcGi0sE69TWDHrhqQFIVi4BkVldbEsTDl1pY1cdtAG9Eic+v5/Wi1S7MIeSh0Z55
822kUD7Sj+QWKBdYXrDCRHbVCm44fTLYP8kTtCbzXOY=
-----END CERTIFICATE-----
