Certificate:
    Data:
        Version: 3 (0x2)
        Serial Number: 14603759805270074019 (0xcaaafa2b3a4022a3)
    Signature Algorithm: sha1WithRSAEncryption
        Issuer: C=US, ST=VA, O=Textus, OU=etc/ssl, CN=localhost/emailAddress=test@localhost
        Validity
            Not Before: Feb 11 02:50:42 2013 GMT
            Not After : Feb 12 02:50:42 2014 GMT
        Subject: C=US, ST=VA, O=Textus, OU=etc/ssl, CN=localhost/emailAddress=test@localhost
        Subject Public Key Info:
            Public Key Algorithm: rsaEncryption
                Public-Key: (1024 bit)
                Modulus:
                    00:d8:20:90:4f:65:88:17:69:9e:e3:d2:a2:5d:01:
                    41:56:c5:f1:ce:f7:32:36:a3:2d:04:24:96:b6:b0:
                    8b:a6:a2:99:60:07:9a:f9:af:b1:7d:e7:6b:6e:55:
                    4b:59:2f:12:20:3f:e1:92:4c:7d:a6:d2:1f:73:8a:
                    10:69:02:16:00:52:2b:6d:ff:ad:e7:d0:b8:ac:08:
                    5b:60:89:8a:dc:8d:25:fe:b8:d7:68:8e:34:f5:8a:
                    e5:07:8d:28:ca:98:69:b9:d7:fa:a6:13:01:fe:0e:
                    c0:b7:1b:e4:a0:65:10:28:1f:75:a3:4e:b6:74:f9:
                    6b:3a:3d:78:fe:d3:f1:8b:53
                Exponent: 65537 (0x10001)
        X509v3 extensions:
            X509v3 Subject Key Identifier: 
                06:17:C0:74:95:51:F2:55:4A:61:14:FF:D7:5E:B8:78:63:0A:4C:08
            X509v3 Authority Key Identifier: 
                keyid:06:17:C0:74:95:51:F2:55:4A:61:14:FF:D7:5E:B8:78:63:0A:4C:08

            X509v3 Basic Constraints: 
                CA:TRUE
    Signature Algorithm: sha1WithRSAEncryption
         48:5c:f2:78:38:73:3d:9c:fa:37:86:c6:f9:c3:34:9a:f7:f5:
         e9:02:96:2d:97:90:7c:95:4f:55:97:41:1d:1b:2b:bb:43:bd:
         ca:c9:d2:cf:01:eb:a2:b9:df:3f:96:d5:aa:20:63:ae:d8:7a:
         96:2f:7a:3b:1d:71:b9:59:5d:c9:3b:51:5b:bc:e0:35:1d:a5:
         0e:6d:61:08:48:28:5c:f5:ce:96:c8:d1:2a:af:68:8d:a8:02:
         51:52:cd:92:94:64:f7:0f:95:01:30:9f:c7:ab:e0:a3:18:56:
         b8:4a:ed:b3:df:8e:67:03:cf:c0:06:09:e4:73:6b:55:78:e8:
         d0:d3
-----BEGIN CERTIFICATE-----
MIICrjCCAhegAwIBAgIJAMqq+is6QCKjMA0GCSqGSIb3DQEBBQUAMHAxCzAJBgNV
BAYTAlVTMQswCQYDVQQIDAJWQTEPMA0GA1UECgwGVGV4dHVzMRAwDgYDVQQLDAdl
dGMvc3NsMRIwEAYDVQQDDAlsb2NhbGhvc3QxHTAbBgkqhkiG9w0BCQEWDnRlc3RA
bG9jYWxob3N0MB4XDTEzMDIxMTAyNTA0MloXDTE0MDIxMjAyNTA0MlowcDELMAkG
A1UEBhMCVVMxCzAJBgNVBAgMAlZBMQ8wDQYDVQQKDAZUZXh0dXMxEDAOBgNVBAsM
B2V0Yy9zc2wxEjAQBgNVBAMMCWxvY2FsaG9zdDEdMBsGCSqGSIb3DQEJARYOdGVz
dEBsb2NhbGhvc3QwgZ8wDQYJKoZIhvcNAQEBBQADgY0AMIGJAoGBANggkE9liBdp
nuPSol0BQVbF8c73MjajLQQklrawi6aimWAHmvmvsX3na25VS1kvEiA/4ZJMfabS
H3OKEGkCFgBSK23/refQuKwIW2CJityNJf6412iONPWK5QeNKMqYabnX+qYTAf4O
wLcb5KBlECgfdaNOtnT5azo9eP7T8YtTAgMBAAGjUDBOMB0GA1UdDgQWBBQGF8B0
lVHyVUphFP/XXrh4YwpMCDAfBgNVHSMEGDAWgBQGF8B0lVHyVUphFP/XXrh4YwpM
CDAMBgNVHRMEBTADAQH/MA0GCSqGSIb3DQEBBQUAA4GBAEhc8ng4cz2c+jeGxvnD
NJr39ekCli2XkHyVT1WXQR0bK7tDvcrJ0s8B66K53z+W1aogY67YepYvejsdcblZ
Xck7UVu84DUdpQ5tYQhIKFz1zpbI0SqvaI2oAlFSzZKUZPcPlQEwn8er4KMYVrhK
7bPfjmcDz8AGCeRza1V46NDT
-----END CERTIFICATE-----
